# SymbolsHelper-Confirmed: 1.1.0 amd64 armhf
liblxqt.so.1 liblxqt1 #MINVER#
* Build-Depends-Package: liblxqt1-dev
 _ZN4LXQt10GridLayout10invalidateEv@Base 1.1.0
 _ZN4LXQt10GridLayout10setStretchE6QFlagsINS0_11StretchFlagEE@Base 1.1.0
 _ZN4LXQt10GridLayout11qt_metacallEN11QMetaObject4CallEiPPv@Base 1.1.0
 _ZN4LXQt10GridLayout11qt_metacastEPKc@Base 1.1.0
 _ZN4LXQt10GridLayout11setGeometryERK5QRect@Base 1.1.0
 _ZN4LXQt10GridLayout11setRowCountEi@Base 1.1.0
 _ZN4LXQt10GridLayout12setDirectionENS0_9DirectionE@Base 1.1.0
 _ZN4LXQt10GridLayout14setColumnCountEi@Base 1.1.0
 _ZN4LXQt10GridLayout16setCellFixedSizeE5QSize@Base 1.1.0
 _ZN4LXQt10GridLayout16staticMetaObjectE@Base 1.1.0
 _ZN4LXQt10GridLayout17setCellFixedWidthEi@Base 1.1.0
 _ZN4LXQt10GridLayout18setCellFixedHeightEi@Base 1.1.0
 _ZN4LXQt10GridLayout18setCellMaximumSizeE5QSize@Base 1.1.0
 _ZN4LXQt10GridLayout18setCellMinimumSizeE5QSize@Base 1.1.0
 _ZN4LXQt10GridLayout19setCellMaximumWidthEi@Base 1.1.0
 _ZN4LXQt10GridLayout19setCellMinimumWidthEi@Base 1.1.0
 _ZN4LXQt10GridLayout20setCellMaximumHeightEi@Base 1.1.0
 _ZN4LXQt10GridLayout20setCellMinimumHeightEi@Base 1.1.0
 _ZN4LXQt10GridLayout6takeAtEi@Base 1.1.0
 _ZN4LXQt10GridLayout7addItemEP11QLayoutItem@Base 1.1.0
 _ZN4LXQt10GridLayout8moveItemEiib@Base 1.1.0
 _ZN4LXQt10GridLayoutC1EP7QWidget@Base 1.1.0
 _ZN4LXQt10GridLayoutC2EP7QWidget@Base 1.1.0
 _ZN4LXQt10GridLayoutD0Ev@Base 1.1.0
 _ZN4LXQt10GridLayoutD1Ev@Base 1.1.0
 _ZN4LXQt10GridLayoutD2Ev@Base 1.1.0
 _ZN4LXQt10PluginInfo4loadERK7QString@Base 1.1.0
 _ZN4LXQt10PluginInfo6searchERK11QStringListRK7QStringS6_@Base 1.1.0
 _ZN4LXQt10PluginInfo6searchERK7QStringS3_S3_@Base 1.1.0
 _ZN4LXQt10PluginInfoC1Ev@Base 1.1.0
 _ZN4LXQt10PluginInfoC2Ev@Base 1.1.0
 _ZN4LXQt10Translator15translatePluginERK7QStringS3_@Base 1.1.0
 _ZN4LXQt10Translator16translateLibraryERK7QString@Base 1.1.0
 _ZN4LXQt10Translator20translateApplicationERK7QString@Base 1.1.0
 _ZN4LXQt10Translator22translationSearchPathsEv@Base 1.1.0
 _ZN4LXQt10Translator25setTranslationSearchPathsERK11QStringList@Base 1.1.0
 _ZN4LXQt11Application10unixSignalEi@Base 1.1.0
 _ZN4LXQt11Application11qt_metacallEN11QMetaObject4CallEiPPv@Base 1.1.0
 _ZN4LXQt11Application11qt_metacastEPKc@Base 1.1.0
 _ZN4LXQt11Application11updateThemeEv@Base 1.1.0
 _ZN4LXQt11Application12themeChangedEv@Base 1.1.0
 _ZN4LXQt11Application16staticMetaObjectE@Base 1.1.0
 _ZN4LXQt11Application19listenToUnixSignalsERK5QListIiE@Base 1.1.0
 _ZN4LXQt11ApplicationC1ERiPPc@Base 1.1.0
 _ZN4LXQt11ApplicationC1ERiPPcb@Base 1.1.0
 _ZN4LXQt11ApplicationC2ERiPPc@Base 1.1.0
 _ZN4LXQt11ApplicationC2ERiPPcb@Base 1.1.0
 _ZN4LXQt11ScreenSaver10lockScreenEv@Base 1.1.0
 _ZN4LXQt11ScreenSaver11qt_metacallEN11QMetaObject4CallEiPPv@Base 1.1.0
 _ZN4LXQt11ScreenSaver11qt_metacastEPKc@Base 1.1.0
 _ZN4LXQt11ScreenSaver16availableActionsEv@Base 1.1.0
 _ZN4LXQt11ScreenSaver16staticMetaObjectE@Base 1.1.0
 _ZN4LXQt11ScreenSaver4doneEv@Base 1.1.0
 _ZN4LXQt11ScreenSaver9activatedEv@Base 1.1.0
 _ZN4LXQt11ScreenSaverC1EP7QObject@Base 1.1.0
 _ZN4LXQt11ScreenSaverC2EP7QObject@Base 1.1.0
 _ZN4LXQt11ScreenSaverD0Ev@Base 1.1.0
 _ZN4LXQt11ScreenSaverD1Ev@Base 1.1.0
 _ZN4LXQt11ScreenSaverD2Ev@Base 1.1.0
 _ZN4LXQt12ConfigDialog10closeEventEP11QCloseEvent@Base 1.1.0
 _ZN4LXQt12ConfigDialog10setButtonsE6QFlagsIN16QDialogButtonBox14StandardButtonEE@Base 1.1.0
 _ZN4LXQt12ConfigDialog11qt_metacallEN11QMetaObject4CallEiPPv@Base 1.1.0
 _ZN4LXQt12ConfigDialog11qt_metacastEPKc@Base 1.1.0
 _ZN4LXQt12ConfigDialog12enableButtonEN16QDialogButtonBox14StandardButtonEb@Base 1.1.0
 _ZN4LXQt12ConfigDialog16staticMetaObjectE@Base 1.1.0
 _ZN4LXQt12ConfigDialog4saveEv@Base 1.1.0
 _ZN4LXQt12ConfigDialog5eventEP6QEvent@Base 1.1.0
 _ZN4LXQt12ConfigDialog5resetEv@Base 1.1.0
 _ZN4LXQt12ConfigDialog7addPageEP7QWidgetRK7QStringRK11QStringList@Base 1.1.0
 _ZN4LXQt12ConfigDialog7addPageEP7QWidgetRK7QStringS5_@Base 1.1.0
 _ZN4LXQt12ConfigDialog7clickedEN16QDialogButtonBox14StandardButtonE@Base 1.1.0
 _ZN4LXQt12ConfigDialog8showPageEP7QWidget@Base 1.1.0
 _ZN4LXQt12ConfigDialog8showPageERK7QString@Base 1.1.0
 _ZN4LXQt12ConfigDialogC1ERK7QStringPNS_8SettingsEP7QWidget@Base 1.1.0
 _ZN4LXQt12ConfigDialogC2ERK7QStringPNS_8SettingsEP7QWidget@Base 1.1.0
 _ZN4LXQt12ConfigDialogD0Ev@Base 1.1.0
 _ZN4LXQt12ConfigDialogD1Ev@Base 1.1.0
 _ZN4LXQt12ConfigDialogD2Ev@Base 1.1.0
 _ZN4LXQt12HtmlDelegate11qt_metacallEN11QMetaObject4CallEiPPv@Base 1.1.0
 _ZN4LXQt12HtmlDelegate11qt_metacastEPKc@Base 1.1.0
 _ZN4LXQt12HtmlDelegate16staticMetaObjectE@Base 1.1.0
 _ZN4LXQt12HtmlDelegateC1E5QSizeP7QObject@Base 1.1.0
 _ZN4LXQt12HtmlDelegateC2E5QSizeP7QObject@Base 1.1.0
 _ZN4LXQt12HtmlDelegateD0Ev@Base 1.1.0
 _ZN4LXQt12HtmlDelegateD1Ev@Base 1.1.0
 _ZN4LXQt12HtmlDelegateD2Ev@Base 1.1.0
 _ZN4LXQt12Notification10clearHintsEv@Base 1.1.0
 _ZN4LXQt12Notification10serverInfoEv@Base 1.1.0
 _ZN4LXQt12Notification10setActionsERK11QStringListi@Base 1.1.0
 _ZN4LXQt12Notification10setSummaryERK7QString@Base 1.1.0
 _ZN4LXQt12Notification10setTimeoutEi@Base 1.1.0
 _ZN4LXQt12Notification11qt_metacallEN11QMetaObject4CallEiPPv@Base 1.1.0
 _ZN4LXQt12Notification11qt_metacastEPKc@Base 1.1.0
 _ZN4LXQt12Notification14setUrgencyHintENS0_7UrgencyE@Base 1.1.0
 _ZN4LXQt12Notification15actionActivatedEi@Base 1.1.0
 _ZN4LXQt12Notification15getCapabilitiesEv@Base 1.1.0
 _ZN4LXQt12Notification15queryServerInfoEv@Base 1.1.0
 _ZN4LXQt12Notification15serverInfoReadyEv@Base 1.1.0
 _ZN4LXQt12Notification16staticMetaObjectE@Base 1.1.0
 _ZN4LXQt12Notification18notificationClosedENS0_11CloseReasonE@Base 1.1.0
 _ZN4LXQt12Notification5closeEv@Base 1.1.0
 _ZN4LXQt12Notification6notifyERK7QStringS3_S3_@Base 1.1.0
 _ZN4LXQt12Notification6updateEv@Base 1.1.0
 _ZN4LXQt12Notification7setBodyERK7QString@Base 1.1.0
 _ZN4LXQt12Notification7setHintERK7QStringRK8QVariant@Base 1.1.0
 _ZN4LXQt12Notification7setIconERK7QString@Base 1.1.0
 _ZN4LXQt12NotificationC1ERK7QStringP7QObject@Base 1.1.0
 _ZN4LXQt12NotificationC2ERK7QStringP7QObject@Base 1.1.0
 _ZN4LXQt12NotificationD0Ev@Base 1.1.0
 _ZN4LXQt12NotificationD1Ev@Base 1.1.0
 _ZN4LXQt12NotificationD2Ev@Base 1.1.0
 _ZN4LXQt12PowerManager11qt_metacallEN11QMetaObject4CallEiPPv@Base 1.1.0
 _ZN4LXQt12PowerManager11qt_metacastEPKc@Base 1.1.0
 _ZN4LXQt12PowerManager13suspendFailedEv@Base 1.1.0
 _ZN4LXQt12PowerManager15hibernateFailedEv@Base 1.1.0
 _ZN4LXQt12PowerManager16availableActionsEv@Base 1.1.0
 _ZN4LXQt12PowerManager16staticMetaObjectE@Base 1.1.0
 _ZN4LXQt12PowerManager6logoutEv@Base 1.1.0
 _ZN4LXQt12PowerManager6rebootEv@Base 1.1.0
 _ZN4LXQt12PowerManager7suspendEv@Base 1.1.0
 _ZN4LXQt12PowerManager8shutdownEv@Base 1.1.0
 _ZN4LXQt12PowerManager9hibernateEv@Base 1.1.0
 _ZN4LXQt12PowerManagerC1EP7QObjectb@Base 1.1.0
 _ZN4LXQt12PowerManagerC2EP7QObjectb@Base 1.1.0
 _ZN4LXQt12PowerManagerD0Ev@Base 1.1.0
 _ZN4LXQt12PowerManagerD1Ev@Base 1.1.0
 _ZN4LXQt12PowerManagerD2Ev@Base 1.1.0
 _ZN4LXQt13ProgramFinder11programNameERK7QString@Base 1.1.0
 _ZN4LXQt13ProgramFinder12findProgramsERK11QStringList@Base 1.1.0
 _ZN4LXQt13ProgramFinder13programExistsERK7QString@Base 1.1.0
 _ZN4LXQt13RotatedWidget10enterEventEP6QEvent@Base 1.1.0
 _ZN4LXQt13RotatedWidget10leaveEventEP6QEvent@Base 1.1.0
 _ZN4LXQt13RotatedWidget10paintEventEP11QPaintEvent@Base 1.1.0
 _ZN4LXQt13RotatedWidget10wheelEventEP11QWheelEvent@Base 1.1.0
 _ZN4LXQt13RotatedWidget11qt_metacallEN11QMetaObject4CallEiPPv@Base 1.1.0
 _ZN4LXQt13RotatedWidget11qt_metacastEPKc@Base 1.1.0
 _ZN4LXQt13RotatedWidget11resizeEventEP12QResizeEvent@Base 1.1.0
 _ZN4LXQt13RotatedWidget14mouseMoveEventEP11QMouseEvent@Base 1.1.0
 _ZN4LXQt13RotatedWidget15mousePressEventEP11QMouseEvent@Base 1.1.0
 _ZN4LXQt13RotatedWidget16staticMetaObjectE@Base 1.1.0
 _ZN4LXQt13RotatedWidget17adjustContentSizeEv@Base 1.1.0
 _ZN4LXQt13RotatedWidget17mouseReleaseEventEP11QMouseEvent@Base 1.1.0
 _ZN4LXQt13RotatedWidget21mouseDoubleClickEventEP11QMouseEvent@Base 1.1.0
 _ZN4LXQt13RotatedWidget9setOriginEN2Qt6CornerE@Base 1.1.0
 _ZN4LXQt13RotatedWidgetC1ER7QWidgetPS1_6QFlagsIN2Qt10WindowTypeEE@Base 1.1.0
 _ZN4LXQt13RotatedWidgetC2ER7QWidgetPS1_6QFlagsIN2Qt10WindowTypeEE@Base 1.1.0
 _ZN4LXQt13SettingsCache14loadToSettingsEv@Base 1.1.0
 _ZN4LXQt13SettingsCache16loadFromSettingsEv@Base 1.1.0
 _ZN4LXQt13SettingsCacheC1EP9QSettings@Base 1.1.0
 _ZN4LXQt13SettingsCacheC1ER9QSettings@Base 1.1.0
 _ZN4LXQt13SettingsCacheC2EP9QSettings@Base 1.1.0
 _ZN4LXQt13SettingsCacheC2ER9QSettings@Base 1.1.0
 _ZN4LXQt14AutostartEntry10setEnabledEb@Base 1.1.0
 _ZN4LXQt14AutostartEntry11removeLocalEv@Base 1.1.0
 _ZN4LXQt14AutostartEntry6commitEv@Base 1.1.0
 _ZN4LXQt14AutostartEntry7setFileERK14XdgDesktopFile@Base 1.1.0
 _ZN4LXQt14AutostartEntryC1ERK7QString@Base 1.1.0
 _ZN4LXQt14AutostartEntryC1Ev@Base 1.1.0
 _ZN4LXQt14AutostartEntryC2ERK7QString@Base 1.1.0
 _ZN4LXQt14AutostartEntryC2Ev@Base 1.1.0
 _ZN4LXQt14GlobalSettings11fileChangedEv@Base 1.1.0
 _ZN4LXQt14GlobalSettings11qt_metacallEN11QMetaObject4CallEiPPv@Base 1.1.0
 _ZN4LXQt14GlobalSettings11qt_metacastEPKc@Base 1.1.0
 _ZN4LXQt14GlobalSettings16iconThemeChangedEv@Base 1.1.0
 _ZN4LXQt14GlobalSettings16lxqtThemeChangedEv@Base 1.1.0
 _ZN4LXQt14GlobalSettings16staticMetaObjectE@Base 1.1.0
 _ZN4LXQt14GlobalSettingsC1Ev@Base 1.1.0
 _ZN4LXQt14GlobalSettingsC2Ev@Base 1.1.0
 _ZN4LXQt14GlobalSettingsD0Ev@Base 1.1.0
 _ZN4LXQt14GlobalSettingsD1Ev@Base 1.1.0
 _ZN4LXQt14GlobalSettingsD2Ev@Base 1.1.0
 _ZN4LXQt14VirtualBackEnd11qt_metacallEN11QMetaObject4CallEiPPv@Base 1.1.0
 _ZN4LXQt14VirtualBackEnd11qt_metacastEPKc@Base 1.1.0
 _ZN4LXQt14VirtualBackEnd12getBacklightEv@Base 1.1.0
 _ZN4LXQt14VirtualBackEnd12setBacklightEi@Base 1.1.0
 _ZN4LXQt14VirtualBackEnd14isBacklightOffEv@Base 1.1.0
 _ZN4LXQt14VirtualBackEnd15getMaxBacklightEv@Base 1.1.0
 _ZN4LXQt14VirtualBackEnd16backlightChangedEi@Base 1.1.0
 _ZN4LXQt14VirtualBackEnd16staticMetaObjectE@Base 1.1.0
 _ZN4LXQt14VirtualBackEnd20isBacklightAvailableEv@Base 1.1.0
 _ZN4LXQt14VirtualBackEndC1EP7QObject@Base 1.1.0
 _ZN4LXQt14VirtualBackEndC2EP7QObject@Base 1.1.0
 _ZN4LXQt16PageSelectWidget11qt_metacallEN11QMetaObject4CallEiPPv@Base 1.1.0
 _ZN4LXQt16PageSelectWidget11qt_metacastEPKc@Base 1.1.0
 _ZN4LXQt16PageSelectWidget16staticMetaObjectE@Base 1.1.0
 _ZN4LXQt16PageSelectWidget18updateMaxTextWidthEv@Base 1.1.0
 _ZN4LXQt16PageSelectWidget5eventEP6QEvent@Base 1.1.0
 _ZN4LXQt16PageSelectWidgetC1EP7QWidget@Base 1.1.0
 _ZN4LXQt16PageSelectWidgetC2EP7QWidget@Base 1.1.0
 _ZN4LXQt16PageSelectWidgetD0Ev@Base 1.1.0
 _ZN4LXQt16PageSelectWidgetD1Ev@Base 1.1.0
 _ZN4LXQt16PageSelectWidgetD2Ev@Base 1.1.0
 _ZN4LXQt17SingleApplication11qt_metacallEN11QMetaObject4CallEiPPv@Base 1.1.0
 _ZN4LXQt17SingleApplication11qt_metacastEPKc@Base 1.1.0
 _ZN4LXQt17SingleApplication14activateWindowEv@Base 1.1.0
 _ZN4LXQt17SingleApplication16staticMetaObjectE@Base 1.1.0
 _ZN4LXQt17SingleApplication19setActivationWindowEP7QWidget@Base 1.1.0
 _ZN4LXQt17SingleApplicationC1ERiPPcNS0_12StartOptionsE@Base 1.1.0
 _ZN4LXQt17SingleApplicationC2ERiPPcNS0_12StartOptionsE@Base 1.1.0
 _ZN4LXQt17SingleApplicationD0Ev@Base 1.1.0
 _ZN4LXQt17SingleApplicationD1Ev@Base 1.1.0
 _ZN4LXQt17SingleApplicationD2Ev@Base 1.1.0
 _ZN4LXQt26ConfigDialogCmdLineOptions14setCommandLineEP18QCommandLineParser@Base 1.1.0
 _ZN4LXQt26ConfigDialogCmdLineOptions7processER18QCommandLineParser@Base 1.1.0
 _ZN4LXQt26ConfigDialogCmdLineOptionsC1Ev@Base 1.1.0
 _ZN4LXQt26ConfigDialogCmdLineOptionsC2Ev@Base 1.1.0
 _ZN4LXQt26ConfigDialogCmdLineOptionsD1Ev@Base 1.1.0
 _ZN4LXQt26ConfigDialogCmdLineOptionsD2Ev@Base 1.1.0
 _ZN4LXQt5Power10monitorOffEv@Base 1.1.0
 _ZN4LXQt5Power11qt_metacallEN11QMetaObject4CallEiPPv@Base 1.1.0
 _ZN4LXQt5Power11qt_metacastEPKc@Base 1.1.0
 _ZN4LXQt5Power15showLeaveDialogEv@Base 1.1.0
 _ZN4LXQt5Power16staticMetaObjectE@Base 1.1.0
 _ZN4LXQt5Power6logoutEv@Base 1.1.0
 _ZN4LXQt5Power6rebootEv@Base 1.1.0
 _ZN4LXQt5Power7suspendEv@Base 1.1.0
 _ZN4LXQt5Power8doActionENS0_6ActionE@Base 1.1.0
 _ZN4LXQt5Power8shutdownEv@Base 1.1.0
 _ZN4LXQt5Power9hibernateEv@Base 1.1.0
 _ZN4LXQt5PowerC1EP7QObject@Base 1.1.0
 _ZN4LXQt5PowerC1EbP7QObject@Base 1.1.0
 _ZN4LXQt5PowerC2EP7QObject@Base 1.1.0
 _ZN4LXQt5PowerC2EbP7QObject@Base 1.1.0
 _ZN4LXQt5PowerD0Ev@Base 1.1.0
 _ZN4LXQt5PowerD1Ev@Base 1.1.0
 _ZN4LXQt5PowerD2Ev@Base 1.1.0
 _ZN4LXQt8Settings11fileChangedEv@Base 1.1.0
 _ZN4LXQt8Settings11qt_metacallEN11QMetaObject4CallEiPPv@Base 1.1.0
 _ZN4LXQt8Settings11qt_metacastEPKc@Base 1.1.0
 _ZN4LXQt8Settings12_fileChangedERK7QString@Base 1.1.0
 _ZN4LXQt8Settings14addWatchedFileERK7QString@Base 1.1.0
 _ZN4LXQt8Settings14globalSettingsEv@Base 1.1.0
 _ZN4LXQt8Settings15settingsChangedEv@Base 1.1.0
 _ZN4LXQt8Settings16staticMetaObjectE@Base 1.1.0
 _ZN4LXQt8Settings17setLocalizedValueERK7QStringRK8QVariant@Base 1.1.0
 _ZN4LXQt8Settings20settingsChangedByAppEv@Base 1.1.0
 _ZN4LXQt8Settings27settingsChangedFromExternalEv@Base 1.1.0
 _ZN4LXQt8Settings5eventEP6QEvent@Base 1.1.0
 _ZN4LXQt8SettingsC1EPK9QSettingsRK7QStringP7QObject@Base 1.1.0
 _ZN4LXQt8SettingsC1ERK7QStringN9QSettings6FormatEP7QObject@Base 1.1.0
 _ZN4LXQt8SettingsC1ERK7QStringP7QObject@Base 1.1.0
 _ZN4LXQt8SettingsC1ERK9QSettingsRK7QStringP7QObject@Base 1.1.0
 _ZN4LXQt8SettingsC2EPK9QSettingsRK7QStringP7QObject@Base 1.1.0
 _ZN4LXQt8SettingsC2ERK7QStringN9QSettings6FormatEP7QObject@Base 1.1.0
 _ZN4LXQt8SettingsC2ERK7QStringP7QObject@Base 1.1.0
 _ZN4LXQt8SettingsC2ERK9QSettingsRK7QStringP7QObject@Base 1.1.0
 _ZN4LXQt8SettingsD0Ev@Base 1.1.0
 _ZN4LXQt8SettingsD1Ev@Base 1.1.0
 _ZN4LXQt8SettingsD2Ev@Base 1.1.0
 _ZN4LXQt9Backlight11qt_metacallEN11QMetaObject4CallEiPPv@Base 1.1.0
 _ZN4LXQt9Backlight11qt_metacastEPKc@Base 1.1.0
 _ZN4LXQt9Backlight12getBacklightEv@Base 1.1.0
 _ZN4LXQt9Backlight12setBacklightEi@Base 1.1.0
 _ZN4LXQt9Backlight14isBacklightOffEv@Base 1.1.0
 _ZN4LXQt9Backlight15getMaxBacklightEv@Base 1.1.0
 _ZN4LXQt9Backlight16backlightChangedEi@Base 1.1.0
 _ZN4LXQt9Backlight16staticMetaObjectE@Base 1.1.0
 _ZN4LXQt9Backlight20backlightChangedSlotEi@Base 1.1.0
 _ZN4LXQt9Backlight20isBacklightAvailableEv@Base 1.1.0
 _ZN4LXQt9BacklightC1EP7QObject@Base 1.1.0
 _ZN4LXQt9BacklightC2EP7QObject@Base 1.1.0
 _ZN4LXQt9BacklightD0Ev@Base 1.1.0
 _ZN4LXQt9BacklightD1Ev@Base 1.1.0
 _ZN4LXQt9BacklightD2Ev@Base 1.1.0
 _ZN4LXQt9LXQtTheme12currentThemeEv@Base 1.1.0
 _ZN4LXQt9LXQtTheme9allThemesEv@Base 1.1.0
 _ZN4LXQt9LXQtTheme9mInstanceE@Base 1.1.0
 _ZN4LXQt9LXQtThemeC1ERK7QString@Base 1.1.0
 _ZN4LXQt9LXQtThemeC1ERKS0_@Base 1.1.0
 _ZN4LXQt9LXQtThemeC1Ev@Base 1.1.0
 _ZN4LXQt9LXQtThemeC2ERK7QString@Base 1.1.0
 _ZN4LXQt9LXQtThemeC2ERKS0_@Base 1.1.0
 _ZN4LXQt9LXQtThemeC2Ev@Base 1.1.0
 _ZN4LXQt9LXQtThemeD1Ev@Base 1.1.0
 _ZN4LXQt9LXQtThemeD2Ev@Base 1.1.0
 _ZN4LXQt9LXQtThemeaSERKS0_@Base 1.1.0
 _ZNK4LXQt10GridLayout10metaObjectEv@Base 1.1.0
 _ZNK4LXQt10GridLayout11columnCountEv@Base 1.1.0
 _ZNK4LXQt10GridLayout15cellMaximumSizeEv@Base 1.1.0
 _ZNK4LXQt10GridLayout15cellMinimumSizeEv@Base 1.1.0
 _ZNK4LXQt10GridLayout16occupiedGeometryEv@Base 1.1.0
 _ZNK4LXQt10GridLayout22animatedMoveInProgressEv@Base 1.1.0
 _ZNK4LXQt10GridLayout5countEv@Base 1.1.0
 _ZNK4LXQt10GridLayout6itemAtEi@Base 1.1.0
 _ZNK4LXQt10GridLayout7stretchEv@Base 1.1.0
 _ZNK4LXQt10GridLayout8rowCountEv@Base 1.1.0
 _ZNK4LXQt10GridLayout8sizeHintEv@Base 1.1.0
 _ZNK4LXQt10GridLayout9directionEv@Base 1.1.0
 _ZNK4LXQt10PluginInfo11loadLibraryERK7QString@Base 1.1.0
 _ZNK4LXQt10PluginInfo7isValidEv@Base 1.1.0
 _ZNK4LXQt11Application10metaObjectEv@Base 1.1.0
 _ZNK4LXQt11ScreenSaver10metaObjectEv@Base 1.1.0
 _ZNK4LXQt12ConfigDialog10metaObjectEv@Base 1.1.0
 _ZNK4LXQt12HtmlDelegate10metaObjectEv@Base 1.1.0
 _ZNK4LXQt12HtmlDelegate5paintEP8QPainterRK20QStyleOptionViewItemRK11QModelIndex@Base 1.1.0
 _ZNK4LXQt12HtmlDelegate8sizeHintERK20QStyleOptionViewItemRK11QModelIndex@Base 1.1.0
 _ZNK4LXQt12Notification10metaObjectEv@Base 1.1.0
 _ZNK4LXQt12PowerManager10metaObjectEv@Base 1.1.0
 _ZNK4LXQt13RotatedWidget10metaObjectEv@Base 1.1.0
 _ZNK4LXQt13RotatedWidget12adjustedSizeE5QSize@Base 1.1.0
 _ZNK4LXQt13RotatedWidget13adjustedPointE7QPointF@Base 1.1.0
 _ZNK4LXQt13RotatedWidget15minimumSizeHintEv@Base 1.1.0
 _ZNK4LXQt13RotatedWidget6originEv@Base 1.1.0
 _ZNK4LXQt13RotatedWidget7contentEv@Base 1.1.0
 _ZNK4LXQt13RotatedWidget8sizeHintEv@Base 1.1.0
 _ZNK4LXQt14AutostartEntry4fileEv@Base 1.1.0
 _ZNK4LXQt14AutostartEntry4nameEv@Base 1.1.0
 _ZNK4LXQt14AutostartEntry9isEnabledEv@Base 1.1.0
 _ZNK4LXQt14GlobalSettings10metaObjectEv@Base 1.1.0
 _ZNK4LXQt14VirtualBackEnd10metaObjectEv@Base 1.1.0
 _ZNK4LXQt16PageSelectWidget10metaObjectEv@Base 1.1.0
 _ZNK4LXQt16PageSelectWidget12maxTextWidthEv@Base 1.1.0
 _ZNK4LXQt16PageSelectWidget15minimumSizeHintEv@Base 1.1.0
 _ZNK4LXQt16PageSelectWidget16viewportSizeHintEv@Base 1.1.0
 _ZNK4LXQt16PageSelectWidget8sizeHintEv@Base 1.1.0
 _ZNK4LXQt17SingleApplication10metaObjectEv@Base 1.1.0
 _ZNK4LXQt17SingleApplication16activationWindowEv@Base 1.1.0
 _ZNK4LXQt26ConfigDialogCmdLineOptions4pageEv@Base 1.1.0
 _ZNK4LXQt5Power10canSuspendEv@Base 1.1.0
 _ZNK4LXQt5Power10metaObjectEv@Base 1.1.0
 _ZNK4LXQt5Power11canShutdownEv@Base 1.1.0
 _ZNK4LXQt5Power12canHibernateEv@Base 1.1.0
 _ZNK4LXQt5Power13canMonitorOffEv@Base 1.1.0
 _ZNK4LXQt5Power18canShowLeaveDialogEv@Base 1.1.0
 _ZNK4LXQt5Power9canActionENS0_6ActionE@Base 1.1.0
 _ZNK4LXQt5Power9canLogoutEv@Base 1.1.0
 _ZNK4LXQt5Power9canRebootEv@Base 1.1.0
 _ZNK4LXQt8Settings10metaObjectEv@Base 1.1.0
 _ZNK4LXQt8Settings14localizedValueERK7QStringRK8QVariant@Base 1.1.0
 _ZNK4LXQt9Backlight10metaObjectEv@Base 1.1.0
 _ZNK4LXQt9LXQtTheme12previewImageEv@Base 1.1.0
 _ZNK4LXQt9LXQtTheme17desktopBackgroundEi@Base 1.1.0
 _ZNK4LXQt9LXQtTheme3qssERK7QString@Base 1.1.0
 _ZNK4LXQt9LXQtTheme4nameEv@Base 1.1.0
 _ZNK4LXQt9LXQtTheme4pathEv@Base 1.1.0
 _ZNK4LXQt9LXQtTheme7isValidEv@Base 1.1.0
 _ZNSt6vectorIiSaIiEE17_M_realloc_insertIJiEEEvN9__gnu_cxx17__normal_iteratorIPiS1_EEDpOT_@Base 1.1.0
 _ZTIN4LXQt10GridLayoutE@Base 1.1.0
 _ZTIN4LXQt10MessageBoxE@Base 1.1.0
 _ZTIN4LXQt10PluginInfoE@Base 1.1.0
 _ZTIN4LXQt11ApplicationE@Base 1.1.0
 _ZTIN4LXQt11ScreenSaverE@Base 1.1.0
 _ZTIN4LXQt12ConfigDialogE@Base 1.1.0
 _ZTIN4LXQt12HtmlDelegateE@Base 1.1.0
 _ZTIN4LXQt12NotificationE@Base 1.1.0
 _ZTIN4LXQt12PowerManagerE@Base 1.1.0
 _ZTIN4LXQt13RotatedWidgetE@Base 1.1.0
 _ZTIN4LXQt13SettingsCacheE@Base 1.1.0
 _ZTIN4LXQt14AutostartEntryE@Base 1.1.0
 _ZTIN4LXQt14GlobalSettingsE@Base 1.1.0
 _ZTIN4LXQt14VirtualBackEndE@Base 1.1.0
 _ZTIN4LXQt16PageSelectWidgetE@Base 1.1.0
 _ZTIN4LXQt17SingleApplicationE@Base 1.1.0
 _ZTIN4LXQt5PowerE@Base 1.1.0
 _ZTIN4LXQt8SettingsE@Base 1.1.0
 _ZTIN4LXQt9BacklightE@Base 1.1.0
 _ZTSN4LXQt10GridLayoutE@Base 1.1.0
 _ZTSN4LXQt10MessageBoxE@Base 1.1.0
 _ZTSN4LXQt10PluginInfoE@Base 1.1.0
 _ZTSN4LXQt11ApplicationE@Base 1.1.0
 _ZTSN4LXQt11ScreenSaverE@Base 1.1.0
 _ZTSN4LXQt12ConfigDialogE@Base 1.1.0
 _ZTSN4LXQt12HtmlDelegateE@Base 1.1.0
 _ZTSN4LXQt12NotificationE@Base 1.1.0
 _ZTSN4LXQt12PowerManagerE@Base 1.1.0
 _ZTSN4LXQt13RotatedWidgetE@Base 1.1.0
 _ZTSN4LXQt13SettingsCacheE@Base 1.1.0
 _ZTSN4LXQt14AutostartEntryE@Base 1.1.0
 _ZTSN4LXQt14GlobalSettingsE@Base 1.1.0
 _ZTSN4LXQt14VirtualBackEndE@Base 1.1.0
 _ZTSN4LXQt16PageSelectWidgetE@Base 1.1.0
 _ZTSN4LXQt17SingleApplicationE@Base 1.1.0
 _ZTSN4LXQt5PowerE@Base 1.1.0
 _ZTSN4LXQt8SettingsE@Base 1.1.0
 _ZTSN4LXQt9BacklightE@Base 1.1.0
 _ZTVN4LXQt10GridLayoutE@Base 1.1.0
 _ZTVN4LXQt10MessageBoxE@Base 1.1.0
 _ZTVN4LXQt10PluginInfoE@Base 1.1.0
 _ZTVN4LXQt11ApplicationE@Base 1.1.0
 _ZTVN4LXQt11ScreenSaverE@Base 1.1.0
 _ZTVN4LXQt12ConfigDialogE@Base 1.1.0
 _ZTVN4LXQt12HtmlDelegateE@Base 1.1.0
 _ZTVN4LXQt12NotificationE@Base 1.1.0
 _ZTVN4LXQt12PowerManagerE@Base 1.1.0
 _ZTVN4LXQt13RotatedWidgetE@Base 1.1.0
 _ZTVN4LXQt13SettingsCacheE@Base 1.1.0
 _ZTVN4LXQt14AutostartEntryE@Base 1.1.0
 _ZTVN4LXQt14GlobalSettingsE@Base 1.1.0
 _ZTVN4LXQt14VirtualBackEndE@Base 1.1.0
 _ZTVN4LXQt16PageSelectWidgetE@Base 1.1.0
 _ZTVN4LXQt17SingleApplicationE@Base 1.1.0
 _ZTVN4LXQt5PowerE@Base 1.1.0
 _ZTVN4LXQt8SettingsE@Base 1.1.0
 _ZTVN4LXQt9BacklightE@Base 1.1.0
 (c++|arch=!armhf)"non-virtual thunk to LXQt::ConfigDialog::~ConfigDialog()@Base" 1.1.0
 (c++)"non-virtual thunk to LXQt::GridLayout::invalidate()@Base" 1.1.0
 (c++|arch=!armhf)"non-virtual thunk to LXQt::GridLayout::setGeometry(QRect const&)@Base" 1.1.0
 (c++|arch=!armhf)"non-virtual thunk to LXQt::GridLayout::sizeHint() const@Base" 1.1.0
 (c++|arch=!armhf)"non-virtual thunk to LXQt::GridLayout::~GridLayout()@Base" 1.1.0
 (c++)"non-virtual thunk to LXQt::PageSelectWidget::~PageSelectWidget()@Base" 1.1.0
